(dp1
S'files'
p2
(dp3
S'manage'
p4
(dp5
S'index'
p6
(dp7
S'par'
p8
I0
sS'html_filename'
p9
S'manage.html'
p10
sS'name'
p11
g4
sS'nums'
p12
ccopy_reg
_reconstructor
p13
(ccoverage.results
Numbers
p14
c__builtin__
object
p15
NtRp16
(dp17
S'n_files'
p18
I1
sS'n_branches'
p19
I0
sS'n_statements'
p20
I6
sS'n_excluded'
p21
I0
sS'n_missing'
p22
I0
sS'n_missing_branches'
p23
I0
sbssS'hash'
p24
S'\x07\x19u\xfav\xe2\xd5\xfe]\x89z\xb6\x815\t\x85'
p25
ssS'apps_blog_admin'
p26
(dp27
S'index'
p28
(dp29
S'par'
p30
I0
sS'html_filename'
p31
S'apps_blog_admin.html'
p32
sS'name'
p33
S'apps/blog/admin'
p34
sS'nums'
p35
g13
(g14
g15
NtRp36
(dp37
g18
I1
sg19
I0
sg20
I18
sg21
I0
sg22
I7
sg23
I0
sbssS'hash'
p38
S'i\xeb\x9c\x10wIXKl\xae""/!\xcc\xc3'
p39
ssS'apps_blog_tests_live'
p40
(dp41
g6
(dp42
S'par'
p43
I0
sS'html_filename'
p44
S'apps_blog_tests_live.html'
p45
sS'name'
p46
S'apps/blog/tests/live'
p47
sS'nums'
p48
g13
(g14
g15
NtRp49
(dp50
g18
I1
sg19
I0
sg20
I19
sg21
I0
sg22
I0
sg23
I0
sbssg24
S"3\xe7(D\xbc\x90\x15\xfa\xaf\xe20\xc7}H'\n"
p51
ssS'urls___init__'
p52
(dp53
g28
(dp54
g30
I0
sg31
S'urls___init__.html'
p55
sg33
S'urls/__init__'
p56
sg35
g13
(g14
g15
NtRp57
(dp58
g18
I1
sg19
I0
sg20
I0
sg21
I0
sg22
I0
sg23
I0
sbssg38
S'\xb0\xc8pN\xaf>\xa0\xbaz\x144\xe0A9\xb8?'
p59
ssS'apps_blog_urls'
p60
(dp61
g28
(dp62
g43
I0
sg44
S'apps_blog_urls.html'
p63
sg46
S'apps/blog/urls'
p64
sg48
g13
(g14
g15
NtRp65
(dp66
g18
I1
sg19
I0
sg20
I5
sg21
I0
sg22
I0
sg23
I0
sbssg38
S'\xaa|\x08|m\xf2\xe2N%\x1c]#\xe3l14'
p67
ssS'settings___init__'
p68
(dp69
g6
(dp70
g8
I0
sg9
S'settings___init__.html'
p71
sg11
S'settings/__init__'
p72
sg12
g13
(g14
g15
NtRp73
(dp74
g18
I1
sg19
I0
sg20
I0
sg21
I0
sg22
I0
sg23
I0
sbssg24
S'\xb0\xc8pN\xaf>\xa0\xbaz\x144\xe0A9\xb8?'
p75
ssS'apps_blog_tests___init__'
p76
(dp77
g6
(dp78
g8
I0
sg9
S'apps_blog_tests___init__.html'
p79
sg11
S'apps/blog/tests/__init__'
p80
sg12
g13
(g14
g15
NtRp81
(dp82
g18
I1
sg19
I0
sg20
I2
sg21
I0
sg22
I0
sg23
I0
sbssg24
S'\xf2f\xf6C\t\xdaYs\xac\xec\xd5\xc5B\xaa{ '
p83
ssS'apps_blog_migrations_0003_auto__chg_field_post_extra_head__chg_field_post_extra_foot'
p84
(dp85
g6
(dp86
g8
I0
sg9
S'apps_blog_migrations_0003_auto__chg_field_post_extra_head__chg_field_post_extra_foot.html'
p87
sg11
S'apps/blog/migrations/0003_auto__chg_field_post_extra_head__chg_field_post_extra_foot'
p88
sg12
g13
(g14
g15
NtRp89
(dp90
g18
I1
sg19
I0
sg20
I13
sg21
I0
sg22
I2
sg23
I0
sbssg24
S'@\xb8\xb9{\x94|\xcd\xa7\x8d0\xd7\x03Q\x1c<~'
p91
ssS'apps_blog_tests_factories'
p92
(dp93
S'index'
p94
(dp95
S'par'
p96
I0
sS'html_filename'
p97
S'apps_blog_tests_factories.html'
p98
sS'name'
p99
S'apps/blog/tests/factories'
p100
sS'nums'
p101
g13
(g14
g15
NtRp102
(dp103
g18
I1
sg19
I0
sg20
I10
sg21
I0
sg22
I0
sg23
I0
sbssS'hash'
p104
S'>yjC5Ss\xa4\xea\xb9\xd8\x9b2\x0e\xd5\xf9'
p105
ssS'settings_local'
p106
(dp107
g6
(dp108
g8
I0
sg9
S'settings_local.html'
p109
sg11
S'settings/local'
p110
sg12
g13
(g14
g15
NtRp111
(dp112
g18
I1
sg19
I0
sg20
I13
sg21
I0
sg22
I0
sg23
I0
sbssg24
S'\n\xb6\x85\x1c\x7f&r\xe5\x89\xb9Y\x91\xf9Y<\x9e'
p113
ssS'apps_blog_migrations_0002_auto__add_field_post_author'
p114
(dp115
g6
(dp116
g8
I0
sg9
S'apps_blog_migrations_0002_auto__add_field_post_author.html'
p117
sg11
S'apps/blog/migrations/0002_auto__add_field_post_author'
p118
sg12
g13
(g14
g15
NtRp119
(dp120
g18
I1
sg19
I0
sg20
I11
sg21
I0
sg22
I1
sg23
I0
sbssg24
S'\x7f\xb4C\x00\xc8`\xb9]\x1a\x92\xd3\xc3\x05{$\xa5'
p121
ssS'apps_blog_tests_models'
p122
(dp123
g6
(dp124
g8
I0
sg9
S'apps_blog_tests_models.html'
p125
sg11
S'apps/blog/tests/models'
p126
sg12
g13
(g14
g15
NtRp127
(dp128
g18
I1
sg19
I0
sg20
I0
sg21
I0
sg22
I0
sg23
I0
sbssg24
S'\xb0\xc8pN\xaf>\xa0\xbaz\x144\xe0A9\xb8?'
p129
ssS'apps_blog___init__'
p130
(dp131
g6
(dp132
g8
I0
sg9
S'apps_blog___init__.html'
p133
sg11
S'apps/blog/__init__'
p134
sg12
g13
(g14
g15
NtRp135
(dp136
g18
I1
sg19
I0
sg20
I0
sg21
I0
sg22
I0
sg23
I0
sbssg24
S'\xb0\xc8pN\xaf>\xa0\xbaz\x144\xe0A9\xb8?'
p137
ssS'apps_blog_migrations___init__'
p138
(dp139
g6
(dp140
g8
I0
sg9
S'apps_blog_migrations___init__.html'
p141
sg11
S'apps/blog/migrations/__init__'
p142
sg12
g13
(g14
g15
NtRp143
(dp144
g18
I1
sg19
I0
sg20
I0
sg21
I0
sg22
I0
sg23
I0
sbssg24
S'\xb0\xc8pN\xaf>\xa0\xbaz\x144\xe0A9\xb8?'
p145
ssS'apps_blog_migrations_0001_initial'
p146
(dp147
g6
(dp148
g8
I0
sg9
S'apps_blog_migrations_0001_initial.html'
p149
sg11
S'apps/blog/migrations/0001_initial'
p150
sg12
g13
(g14
g15
NtRp151
(dp152
g18
I1
sg19
I0
sg20
I15
sg21
I0
sg22
I2
sg23
I0
sbssg24
S'\xd4\x02\x07\x89\xa6\xac\x1a\x06\xee\xa6\x13\xd6\xc2\xa0\xe8_'
p153
ssS'settings_common'
p154
(dp155
g6
(dp156
g8
I0
sg9
S'settings_common.html'
p157
sg11
S'settings/common'
p158
sg12
g13
(g14
g15
NtRp159
(dp160
g18
I1
sg19
I0
sg20
I18
sg21
I0
sg22
I0
sg23
I0
sbssg24
S'\x0b\xc8\xedq\x8f\x906 z`\xf9\x0b\xdd\xebJ2'
p161
ssS'urls_local'
p162
(dp163
g28
(dp164
g30
I0
sg31
S'urls_local.html'
p165
sg33
S'urls/local'
p166
sg35
g13
(g14
g15
NtRp167
(dp168
g18
I1
sg19
I0
sg20
I8
sg21
I0
sg22
I0
sg23
I0
sbssg38
S'\x92rB\xcfM\xebv\x8e\xa7\x976x`g\x92c'
p169
ssS'conf_environment'
p170
(dp171
g6
(dp172
g8
I0
sg9
S'conf_environment.html'
p173
sg11
S'conf/environment'
p174
sg12
g13
(g14
g15
NtRp175
(dp176
g18
I1
sg19
I0
sg20
I15
sg21
I0
sg22
I0
sg23
I0
sbssg24
S'\xd4w\x99qt\xad5\x9aKP\x1a\xb7\x14\x16\xca\xbc'
p177
ssS'apps_blog_managers'
p178
(dp179
g6
(dp180
g30
I0
sg31
S'apps_blog_managers.html'
p181
sg33
S'apps/blog/managers'
p182
sg35
g13
(g14
g15
NtRp183
(dp184
g18
I1
sg19
I0
sg20
I4
sg21
I0
sg22
I0
sg23
I0
sbssg24
S'\xb7\xe8\xb5\x9e\xf5\x87\x86V\xc1\x1bX\xaa\xc6\x85\x99\x8d'
p185
ssS'apps_blog_models'
p186
(dp187
g6
(dp188
g43
I0
sg44
S'apps_blog_models.html'
p189
sg46
S'apps/blog/models'
p190
sg48
g13
(g14
g15
NtRp191
(dp192
g18
I1
sg19
I0
sg20
I33
sg21
I0
sg22
I2
sg23
I0
sbssg24
S'\xfe\x15\xd8\x8eI@(\xc8\xfc}\x1d\xd7\xc8\x7f\xba\xc5'
p193
ssS'conf___init__'
p194
(dp195
g6
(dp196
g8
I0
sg9
S'conf___init__.html'
p197
sg11
S'conf/__init__'
p198
sg12
g13
(g14
g15
NtRp199
(dp200
g18
I1
sg19
I0
sg20
I0
sg21
I0
sg22
I0
sg23
I0
sbssg24
S'\xb0\xc8pN\xaf>\xa0\xbaz\x144\xe0A9\xb8?'
p201
ssS'apps_blog_views'
p202
(dp203
g28
(dp204
g30
I0
sg31
S'apps_blog_views.html'
p205
sg33
S'apps/blog/views'
p206
sg35
g13
(g14
g15
NtRp207
(dp208
g18
I1
sg19
I0
sg20
I7
sg21
I0
sg22
I0
sg23
I0
sbssg38
S'\xd5\x89\n\xba\x9c\xa0\x92*\x08\x89\x9f\x86@\x85\x17\x9b'
p209
sssS'version'
p210
S'3.5.1'
p211
sS'settings'
p212
S"\x18\\\xc0\xf9'\xe3\x17\xc0\xf7'v\xb2\xbd\x00\xadL"
p213
sS'format'
p214
I1
s.