(dp1
S'files'
p2
(dp3
S'manage'
p4
(dp5
S'index'
p6
(dp7
S'par'
p8
I0
sS'html_filename'
p9
S'manage.html'
p10
sS'name'
p11
g4
sS'nums'
p12
ccopy_reg
_reconstructor
p13
(ccoverage.results
Numbers
p14
c__builtin__
object
p15
NtRp16
(dp17
S'n_files'
p18
I1
sS'n_branches'
p19
I0
sS'n_statements'
p20
I6
sS'n_excluded'
p21
I0
sS'n_missing'
p22
I0
sS'n_missing_branches'
p23
I0
sbssS'hash'
p24
S'\x07\x19u\xfav\xe2\xd5\xfe]\x89z\xb6\x815\t\x85'
p25
ssS'apps_blog_tests_models'
p26
(dp27
g6
(dp28
g8
I0
sg9
S'apps_blog_tests_models.html'
p29
sg11
S'apps/blog/tests/models'
p30
sg12
g13
(g14
g15
NtRp31
(dp32
g18
I1
sg19
I0
sg20
I0
sg21
I0
sg22
I0
sg23
I0
sbssg24
S'\xb0\xc8pN\xaf>\xa0\xbaz\x144\xe0A9\xb8?'
p33
ssS'apps_blog_tests_live'
p34
(dp35
g6
(dp36
S'par'
p37
I0
sS'html_filename'
p38
S'apps_blog_tests_live.html'
p39
sS'name'
p40
S'apps/blog/tests/live'
p41
sS'nums'
p42
g13
(g14
g15
NtRp43
(dp44
g18
I1
sg19
I0
sg20
I19
sg21
I0
sg22
I0
sg23
I0
sbssg24
S'\x90\x19\x03\x18_P\xdc\x131F7|\xf9B`\xb7'
p45
ssS'urls___init__'
p46
(dp47
S'index'
p48
(dp49
S'par'
p50
I0
sS'html_filename'
p51
S'urls___init__.html'
p52
sS'name'
p53
S'urls/__init__'
p54
sS'nums'
p55
g13
(g14
g15
NtRp56
(dp57
g18
I1
sg19
I0
sg20
I0
sg21
I0
sg22
I0
sg23
I0
sbssS'hash'
p58
S'\xb0\xc8pN\xaf>\xa0\xbaz\x144\xe0A9\xb8?'
p59
ssS'apps_blog_urls'
p60
(dp61
g48
(dp62
S'par'
p63
I0
sS'html_filename'
p64
S'apps_blog_urls.html'
p65
sS'name'
p66
S'apps/blog/urls'
p67
sS'nums'
p68
g13
(g14
g15
NtRp69
(dp70
g18
I1
sg19
I0
sg20
I5
sg21
I0
sg22
I0
sg23
I0
sbssg58
S'\xaa|\x08|m\xf2\xe2N%\x1c]#\xe3l14'
p71
ssS'settings___init__'
p72
(dp73
g6
(dp74
g8
I0
sg9
S'settings___init__.html'
p75
sg11
S'settings/__init__'
p76
sg12
g13
(g14
g15
NtRp77
(dp78
g18
I1
sg19
I0
sg20
I0
sg21
I0
sg22
I0
sg23
I0
sbssg24
S'\xb0\xc8pN\xaf>\xa0\xbaz\x144\xe0A9\xb8?'
p79
ssS'apps_blog_tests___init__'
p80
(dp81
g6
(dp82
g8
I0
sg9
S'apps_blog_tests___init__.html'
p83
sg11
S'apps/blog/tests/__init__'
p84
sg12
g13
(g14
g15
NtRp85
(dp86
g18
I1
sg19
I0
sg20
I2
sg21
I0
sg22
I0
sg23
I0
sbssg24
S'\xf2f\xf6C\t\xdaYs\xac\xec\xd5\xc5B\xaa{ '
p87
ssS'apps_blog_migrations_0003_auto__chg_field_post_extra_head__chg_field_post_extra_foot'
p88
(dp89
g6
(dp90
g8
I0
sg9
S'apps_blog_migrations_0003_auto__chg_field_post_extra_head__chg_field_post_extra_foot.html'
p91
sg11
S'apps/blog/migrations/0003_auto__chg_field_post_extra_head__chg_field_post_extra_foot'
p92
sg12
g13
(g14
g15
NtRp93
(dp94
g18
I1
sg19
I0
sg20
I13
sg21
I0
sg22
I2
sg23
I0
sbssg24
S'@\xb8\xb9{\x94|\xcd\xa7\x8d0\xd7\x03Q\x1c<~'
p95
ssS'apps_blog_tests_factories'
p96
(dp97
S'index'
p98
(dp99
S'par'
p100
I0
sS'html_filename'
p101
S'apps_blog_tests_factories.html'
p102
sS'name'
p103
S'apps/blog/tests/factories'
p104
sS'nums'
p105
g13
(g14
g15
NtRp106
(dp107
g18
I1
sg19
I0
sg20
I10
sg21
I0
sg22
I0
sg23
I0
sbssS'hash'
p108
S'>yjC5Ss\xa4\xea\xb9\xd8\x9b2\x0e\xd5\xf9'
p109
ssS'settings_local'
p110
(dp111
g6
(dp112
g8
I0
sg9
S'settings_local.html'
p113
sg11
S'settings/local'
p114
sg12
g13
(g14
g15
NtRp115
(dp116
g18
I1
sg19
I0
sg20
I13
sg21
I0
sg22
I0
sg23
I0
sbssg24
S'\n\xb6\x85\x1c\x7f&r\xe5\x89\xb9Y\x91\xf9Y<\x9e'
p117
ssS'apps_blog_migrations_0002_auto__add_field_post_author'
p118
(dp119
g6
(dp120
g8
I0
sg9
S'apps_blog_migrations_0002_auto__add_field_post_author.html'
p121
sg11
S'apps/blog/migrations/0002_auto__add_field_post_author'
p122
sg12
g13
(g14
g15
NtRp123
(dp124
g18
I1
sg19
I0
sg20
I11
sg21
I0
sg22
I1
sg23
I0
sbssg24
S'\x7f\xb4C\x00\xc8`\xb9]\x1a\x92\xd3\xc3\x05{$\xa5'
p125
ssS'apps_blog_admin'
p126
(dp127
g48
(dp128
g50
I0
sg51
S'apps_blog_admin.html'
p129
sg53
S'apps/blog/admin'
p130
sg55
g13
(g14
g15
NtRp131
(dp132
g18
I1
sg19
I0
sg20
I18
sg21
I0
sg22
I7
sg23
I0
sbssg58
S'i\xeb\x9c\x10wIXKl\xae""/!\xcc\xc3'
p133
ssS'apps_blog___init__'
p134
(dp135
g6
(dp136
g8
I0
sg9
S'apps_blog___init__.html'
p137
sg11
S'apps/blog/__init__'
p138
sg12
g13
(g14
g15
NtRp139
(dp140
g18
I1
sg19
I0
sg20
I0
sg21
I0
sg22
I0
sg23
I0
sbssg24
S'\xb0\xc8pN\xaf>\xa0\xbaz\x144\xe0A9\xb8?'
p141
ssS'apps_blog_migrations___init__'
p142
(dp143
g6
(dp144
g8
I0
sg9
S'apps_blog_migrations___init__.html'
p145
sg11
S'apps/blog/migrations/__init__'
p146
sg12
g13
(g14
g15
NtRp147
(dp148
g18
I1
sg19
I0
sg20
I0
sg21
I0
sg22
I0
sg23
I0
sbssg24
S'\xb0\xc8pN\xaf>\xa0\xbaz\x144\xe0A9\xb8?'
p149
ssS'apps_blog_migrations_0001_initial'
p150
(dp151
g6
(dp152
g8
I0
sg9
S'apps_blog_migrations_0001_initial.html'
p153
sg11
S'apps/blog/migrations/0001_initial'
p154
sg12
g13
(g14
g15
NtRp155
(dp156
g18
I1
sg19
I0
sg20
I15
sg21
I0
sg22
I2
sg23
I0
sbssg24
S'\xd4\x02\x07\x89\xa6\xac\x1a\x06\xee\xa6\x13\xd6\xc2\xa0\xe8_'
p157
ssS'settings_common'
p158
(dp159
g6
(dp160
g8
I0
sg9
S'settings_common.html'
p161
sg11
S'settings/common'
p162
sg12
g13
(g14
g15
NtRp163
(dp164
g18
I1
sg19
I0
sg20
I18
sg21
I0
sg22
I0
sg23
I0
sbssg24
S'\x0b\xc8\xedq\x8f\x906 z`\xf9\x0b\xdd\xebJ2'
p165
ssS'urls_local'
p166
(dp167
g48
(dp168
g50
I0
sg51
S'urls_local.html'
p169
sg53
S'urls/local'
p170
sg55
g13
(g14
g15
NtRp171
(dp172
g18
I1
sg19
I0
sg20
I8
sg21
I0
sg22
I0
sg23
I0
sbssg58
S'\x92rB\xcfM\xebv\x8e\xa7\x976x`g\x92c'
p173
ssS'conf_environment'
p174
(dp175
g6
(dp176
g8
I0
sg9
S'conf_environment.html'
p177
sg11
S'conf/environment'
p178
sg12
g13
(g14
g15
NtRp179
(dp180
g18
I1
sg19
I0
sg20
I15
sg21
I0
sg22
I0
sg23
I0
sbssg24
S'\xd4w\x99qt\xad5\x9aKP\x1a\xb7\x14\x16\xca\xbc'
p181
ssS'apps_blog_managers'
p182
(dp183
g6
(dp184
g50
I0
sg51
S'apps_blog_managers.html'
p185
sg53
S'apps/blog/managers'
p186
sg55
g13
(g14
g15
NtRp187
(dp188
g18
I1
sg19
I0
sg20
I4
sg21
I0
sg22
I0
sg23
I0
sbssg24
S'\xb7\xe8\xb5\x9e\xf5\x87\x86V\xc1\x1bX\xaa\xc6\x85\x99\x8d'
p189
ssS'apps_blog_models'
p190
(dp191
g6
(dp192
g63
I0
sg64
S'apps_blog_models.html'
p193
sg66
S'apps/blog/models'
p194
sg68
g13
(g14
g15
NtRp195
(dp196
g18
I1
sg19
I0
sg20
I33
sg21
I0
sg22
I2
sg23
I0
sbssg24
S'\xfe\x15\xd8\x8eI@(\xc8\xfc}\x1d\xd7\xc8\x7f\xba\xc5'
p197
ssS'conf___init__'
p198
(dp199
g6
(dp200
g8
I0
sg9
S'conf___init__.html'
p201
sg11
S'conf/__init__'
p202
sg12
g13
(g14
g15
NtRp203
(dp204
g18
I1
sg19
I0
sg20
I0
sg21
I0
sg22
I0
sg23
I0
sbssg24
S'\xb0\xc8pN\xaf>\xa0\xbaz\x144\xe0A9\xb8?'
p205
ssS'apps_blog_views'
p206
(dp207
g48
(dp208
g50
I0
sg51
S'apps_blog_views.html'
p209
sg53
S'apps/blog/views'
p210
sg55
g13
(g14
g15
NtRp211
(dp212
g18
I1
sg19
I0
sg20
I7
sg21
I0
sg22
I0
sg23
I0
sbssg58
S'\xd5\x89\n\xba\x9c\xa0\x92*\x08\x89\x9f\x86@\x85\x17\x9b'
p213
sssS'version'
p214
S'3.5.1'
p215
sS'settings'
p216
S"\x18\\\xc0\xf9'\xe3\x17\xc0\xf7'v\xb2\xbd\x00\xadL"
p217
sS'format'
p218
I1
s.